; Function Attrs: mustprogress nofree norecurse nosync nounwind willreturn memory(none) uwtable
define dso_local range(i32 0, 2) i32 @_PyUnicode_IsLinebreak(i32 noundef %0) local_unnamed_addr #0 {
  switch i32 %0, label %2 [
    i32 10, label %3
    i32 11, label %3
    i32 12, label %3
    i32 13, label %3
    i32 28, label %3
    i32 29, label %3
    i32 30, label %3
    i32 133, label %3
    i32 8232, label %3
    i32 8233, label %3
  ]

2:                                                ; preds = %1
  br label %3

3:                                                ; preds = %1, %1, %1, %1, %1, %1, %1, %1, %1, %1, %2
  %.0 = phi i32 [ 0, %2 ], [ 1, %1 ], [ 1, %1 ], [ 1, %1 ], [ 1, %1 ], [ 1, %1 ], [ 1, %1 ], [ 1, %1 ], [ 1, %1 ], [ 1, %1 ], [ 1, %1 ]
  ret i32 %.0
}